target datalayout = "e-m:e-p270:32:32-p271:32:32-p272:64:64-i64:64-i128:128-f80:128-n8:16:32:64-S128"
target triple = "x86_64-pc-linux-gnu"

%"class.pxrInternal_v0_24__pxrReserved__::TfEnum" = type <{ ptr, i32, [4 x i8] }>
%"class.pxrInternal_v0_24__pxrReserved__::PcpErrorBase" = type { ptr, i32, %"class.pxrInternal_v0_24__pxrReserved__::PcpSite" }
%"class.pxrInternal_v0_24__pxrReserved__::PcpSite" = type { %"class.pxrInternal_v0_24__pxrReserved__::PcpLayerStackIdentifier", %"class.pxrInternal_v0_24__pxrReserved__::SdfPath" }
%"class.pxrInternal_v0_24__pxrReserved__::PcpLayerStackIdentifier" = type { %"class.pxrInternal_v0_24__pxrReserved__::TfWeakPtr", %"class.pxrInternal_v0_24__pxrReserved__::TfWeakPtr", %"class.pxrInternal_v0_24__pxrReserved__::ArResolverContext", %"class.pxrInternal_v0_24__pxrReserved__::PcpExpressionVariablesSource", i64 }
%"class.pxrInternal_v0_24__pxrReserved__::TfWeakPtr" = type { ptr, %"class.pxrInternal_v0_24__pxrReserved__::TfRefPtr" }
%"class.pxrInternal_v0_24__pxrReserved__::TfRefPtr" = type { ptr }
%"class.pxrInternal_v0_24__pxrReserved__::ArResolverContext" = type { %"class.std::vector" }
%"class.std::vector" = type { %"struct.std::_Vector_base" }
%"struct.std::_Vector_base" = type { %"struct.std::_Vector_base<std::shared_ptr<pxrInternal_v0_24__pxrReserved__::ArResolverContext::_Untyped>, std::allocator<std::shared_ptr<pxrInternal_v0_24__pxrReserved__::ArResolverContext::_Untyped>>>::_Vector_impl" }
%"struct.std::_Vector_base<std::shared_ptr<pxrInternal_v0_24__pxrReserved__::ArResolverContext::_Untyped>, std::allocator<std::shared_ptr<pxrInternal_v0_24__pxrReserved__::ArResolverContext::_Untyped>>>::_Vector_impl" = type { %"struct.std::_Vector_base<std::shared_ptr<pxrInternal_v0_24__pxrReserved__::ArResolverContext::_Untyped>, std::allocator<std::shared_ptr<pxrInternal_v0_24__pxrReserved__::ArResolverContext::_Untyped>>>::_Vector_impl_data" }
%"struct.std::_Vector_base<std::shared_ptr<pxrInternal_v0_24__pxrReserved__::ArResolverContext::_Untyped>, std::allocator<std::shared_ptr<pxrInternal_v0_24__pxrReserved__::ArResolverContext::_Untyped>>>::_Vector_impl_data" = type { ptr, ptr, ptr }
%"class.pxrInternal_v0_24__pxrReserved__::PcpExpressionVariablesSource" = type { %"class.std::shared_ptr" }
%"class.std::shared_ptr" = type { %"class.std::__shared_ptr" }
%"class.std::__shared_ptr" = type { ptr, %"class.std::__shared_count" }
%"class.std::__shared_count" = type { ptr }
%"class.pxrInternal_v0_24__pxrReserved__::SdfPath" = type { %"struct.pxrInternal_v0_24__pxrReserved__::Sdf_PathNodeHandleImpl", %"struct.pxrInternal_v0_24__pxrReserved__::Sdf_PathNodeHandleImpl.0" }
%"struct.pxrInternal_v0_24__pxrReserved__::Sdf_PathNodeHandleImpl" = type { %"struct.pxrInternal_v0_24__pxrReserved__::Sdf_Pool<pxrInternal_v0_24__pxrReserved__::Sdf_PathPrimTag, 24, 8>::Handle" }
%"struct.pxrInternal_v0_24__pxrReserved__::Sdf_Pool<pxrInternal_v0_24__pxrReserved__::Sdf_PathPrimTag, 24, 8>::Handle" = type { i32 }
%"struct.pxrInternal_v0_24__pxrReserved__::Sdf_PathNodeHandleImpl.0" = type { %"struct.pxrInternal_v0_24__pxrReserved__::Sdf_Pool<pxrInternal_v0_24__pxrReserved__::Sdf_PathPropTag, 24, 8>::Handle" }
%"struct.pxrInternal_v0_24__pxrReserved__::Sdf_Pool<pxrInternal_v0_24__pxrReserved__::Sdf_PathPropTag, 24, 8>::Handle" = type { i32 }
%"class.std::__cxx11::basic_string" = type { %"struct.std::__cxx11::basic_string<char>::_Alloc_hider", i64, %union.anon }
%"struct.std::__cxx11::basic_string<char>::_Alloc_hider" = type { ptr }
%union.anon = type { i64, [8 x i8] }
%"class.std::__cxx11::basic_ostringstream" = type { %"class.std::basic_ostream.base", %"class.std::__cxx11::basic_stringbuf", %"class.std::basic_ios" }
%"class.std::basic_ostream.base" = type { ptr }
%"class.std::__cxx11::basic_stringbuf" = type { %"class.std::basic_streambuf", i32, %"class.std::__cxx11::basic_string" }
%"class.std::basic_streambuf" = type { ptr, ptr, ptr, ptr, ptr, ptr, ptr, %"class.std::locale" }
%"class.std::locale" = type { ptr }
%"class.std::basic_ios" = type { %"class.std::ios_base", ptr, i8, i8, ptr, ptr, ptr, ptr }
%"class.std::ios_base" = type { ptr, i64, i64, i32, i32, i32, ptr, %"struct.std::ios_base::_Words", [8 x %"struct.std::ios_base::_Words"], i32, ptr, %"class.std::locale" }
%"struct.std::ios_base::_Words" = type { ptr, i64 }
%"class.pxrInternal_v0_24__pxrReserved__::SdfLayerOffset" = type { double, double }
%"class.pxrInternal_v0_24__pxrReserved__::PcpErrorInvalidReferenceOffset" = type <{ %"class.pxrInternal_v0_24__pxrReserved__::PcpErrorBase", %"class.pxrInternal_v0_24__pxrReserved__::TfWeakPtr", %"class.pxrInternal_v0_24__pxrReserved__::SdfPath", %"class.std::__cxx11::basic_string", %"class.pxrInternal_v0_24__pxrReserved__::SdfPath", %"class.pxrInternal_v0_24__pxrReserved__::SdfLayerOffset", i32, [4 x i8] }>

@.str.40 = private unnamed_addr constant [77 x i8] c"Invalid %s offset %s for @%s@<%s> introduced by %s. Using no offset instead.\00", align 1
@_ZTIN32pxrInternal_v0_24__pxrReserved__10PcpArcTypeE = linkonce_odr constant { ptr, ptr } { ptr getelementptr inbounds (ptr, ptr @_ZTVN10__cxxabiv116__enum_type_infoE, i64 2), ptr @_ZTSN32pxrInternal_v0_24__pxrReserved__10PcpArcTypeE }, comdat, align 8

; Function Attrs: mustprogress uwtable
define linkonce_odr void @_ZN32pxrInternal_v0_24__pxrReserved__11TfStringifyINS_7PcpSiteEEENSt7__cxx1112basic_stringIcSt11char_traitsIcESaIcEEERKT_(ptr dead_on_unwind noalias writable sret(%"class.std::__cxx11::basic_string") align 8 %0, ptr noundef nonnull align 8 dereferenceable(88) %1) #0 comdat personality ptr @__gxx_personality_v0 {
  %3 = alloca ptr, align 8
  %4 = alloca ptr, align 8
  %5 = alloca %"class.std::__cxx11::basic_ostringstream", align 8
  %6 = alloca ptr, align 8
  %7 = alloca i32, align 4
  store ptr %0, ptr %3, align 8
  store ptr %1, ptr %4, align 8
  call void @_ZNSt7__cxx1119basic_ostringstreamIcSt11char_traitsIcESaIcEEC1Ev(ptr noundef nonnull align 8 dereferenceable(112) %5)
  %8 = load ptr, ptr %4, align 8
  %9 = invoke noundef nonnull align 8 dereferenceable(8) ptr @_ZN32pxrInternal_v0_24__pxrReserved__lsERSoRKNS_7PcpSiteE(ptr noundef nonnull align 8 dereferenceable(8) %5, ptr noundef nonnull align 8 dereferenceable(88) %8)
          to label %10 unwind label %12

10:                                               ; preds = %2
  invoke void @_ZNKSt7__cxx1119basic_ostringstreamIcSt11char_traitsIcESaIcEE3strEv(ptr dead_on_unwind writable sret(%"class.std::__cxx11::basic_string") align 8 %0, ptr noundef nonnull align 8 dereferenceable(112) %5)
          to label %11 unwind label %12

11:                                               ; preds = %10
  call void @_ZNSt7__cxx1119basic_ostringstreamIcSt11char_traitsIcESaIcEED1Ev(ptr noundef nonnull align 8 dereferenceable(112) %5) #8
  ret void

12:                                               ; preds = %10, %2
  %13 = landingpad { ptr, i32 }
          cleanup
  %14 = extractvalue { ptr, i32 } %13, 0
  store ptr %14, ptr %6, align 8
  %15 = extractvalue { ptr, i32 } %13, 1
  store i32 %15, ptr %7, align 4
  call void @_ZNSt7__cxx1119basic_ostringstreamIcSt11char_traitsIcESaIcEED1Ev(ptr noundef nonnull align 8 dereferenceable(112) %5) #8
  br label %16

16:                                               ; preds = %12
  %17 = load ptr, ptr %6, align 8
  %18 = load i32, ptr %7, align 4
  %19 = insertvalue { ptr, i32 } poison, ptr %17, 0
  %20 = insertvalue { ptr, i32 } %19, i32 %18, 1
  resume { ptr, i32 } %20
}

; Function Attrs: mustprogress uwtable
define linkonce_odr void @_ZN32pxrInternal_v0_24__pxrReserved__11TfStringifyINS_14SdfLayerOffsetEEENSt7__cxx1112basic_stringIcSt11char_traitsIcESaIcEEERKT_(ptr dead_on_unwind noalias writable sret(%"class.std::__cxx11::basic_string") align 8 %0, ptr noundef nonnull align 8 dereferenceable(16) %1) #0 comdat personality ptr @__gxx_personality_v0 {
  %3 = alloca ptr, align 8
  %4 = alloca ptr, align 8
  %5 = alloca %"class.std::__cxx11::basic_ostringstream", align 8
  %6 = alloca ptr, align 8
  %7 = alloca i32, align 4
  store ptr %0, ptr %3, align 8
  store ptr %1, ptr %4, align 8
  call void @_ZNSt7__cxx1119basic_ostringstreamIcSt11char_traitsIcESaIcEEC1Ev(ptr noundef nonnull align 8 dereferenceable(112) %5)
  %8 = load ptr, ptr %4, align 8
  %9 = invoke noundef nonnull align 8 dereferenceable(8) ptr @_ZN32pxrInternal_v0_24__pxrReserved__lsERSoRKNS_14SdfLayerOffsetE(ptr noundef nonnull align 8 dereferenceable(8) %5, ptr noundef nonnull align 8 dereferenceable(16) %8)
          to label %10 unwind label %12

10:                                               ; preds = %2
  invoke void @_ZNKSt7__cxx1119basic_ostringstreamIcSt11char_traitsIcESaIcEE3strEv(ptr dead_on_unwind writable sret(%"class.std::__cxx11::basic_string") align 8 %0, ptr noundef nonnull align 8 dereferenceable(112) %5)
          to label %11 unwind label %12

11:                                               ; preds = %10
  call void @_ZNSt7__cxx1119basic_ostringstreamIcSt11char_traitsIcESaIcEED1Ev(ptr noundef nonnull align 8 dereferenceable(112) %5) #8
  ret void

12:                                               ; preds = %10, %2
  %13 = landingpad { ptr, i32 }
          cleanup
  %14 = extractvalue { ptr, i32 } %13, 0
  store ptr %14, ptr %6, align 8
  %15 = extractvalue { ptr, i32 } %13, 1
  store i32 %15, ptr %7, align 4
  call void @_ZNSt7__cxx1119basic_ostringstreamIcSt11char_traitsIcESaIcEED1Ev(ptr noundef nonnull align 8 dereferenceable(112) %5) #8
  br label %16

16:                                               ; preds = %12
  %17 = load ptr, ptr %6, align 8
  %18 = load i32, ptr %7, align 4
  %19 = insertvalue { ptr, i32 } poison, ptr %17, 0
  %20 = insertvalue { ptr, i32 } %19, i32 %18, 1
  resume { ptr, i32 } %20
}

; Function Attrs: mustprogress nounwind uwtable
define linkonce_odr void @_ZN32pxrInternal_v0_24__pxrReserved__6TfEnumC2INS_10PcpArcTypeEEET_PNSt9enable_ifIXsr3std7is_enumIS3_EE5valueEvE4typeE(ptr noundef nonnull align 8 dereferenceable(12) %0, i32 noundef %1, ptr noundef %2) unnamed_addr #2 comdat align 2 {
  %4 = alloca ptr, align 8
  %5 = alloca i32, align 4
  %6 = alloca ptr, align 8
  store ptr %0, ptr %4, align 8
  store i32 %1, ptr %5, align 4
  store ptr %2, ptr %6, align 8
  %7 = load ptr, ptr %4, align 8
  %8 = getelementptr inbounds nuw %"class.pxrInternal_v0_24__pxrReserved__::TfEnum", ptr %7, i32 0, i32 0
  store ptr @_ZTIN32pxrInternal_v0_24__pxrReserved__10PcpArcTypeE, ptr %8, align 8
  %9 = getelementptr inbounds nuw %"class.pxrInternal_v0_24__pxrReserved__::TfEnum", ptr %7, i32 0, i32 1
  %10 = load i32, ptr %5, align 4
  store i32 %10, ptr %9, align 8
  ret void
}

; Function Attrs: mustprogress uwtable
define void @_ZNK32pxrInternal_v0_24__pxrReserved__30PcpErrorInvalidReferenceOffset8ToStringB5cxx11Ev(ptr dead_on_unwind noalias writable sret(%"class.std::__cxx11::basic_string") align 8 %0, ptr noundef nonnull align 8 dereferenceable(188) %1) unnamed_addr #0 align 2 personality ptr @__gxx_personality_v0 {
  %3 = alloca ptr, align 8
  %4 = alloca ptr, align 8
  %5 = alloca %"class.std::__cxx11::basic_string", align 8
  %6 = alloca %"class.pxrInternal_v0_24__pxrReserved__::TfEnum", align 8
  %7 = alloca %"class.std::__cxx11::basic_string", align 8
  %8 = alloca ptr, align 8
  %9 = alloca i32, align 4
  %10 = alloca %"class.std::__cxx11::basic_string", align 8
  %11 = alloca %"class.pxrInternal_v0_24__pxrReserved__::PcpSite", align 8
  store ptr %0, ptr %3, align 8
  store ptr %1, ptr %4, align 8
  %12 = load ptr, ptr %4, align 8
  %13 = getelementptr inbounds nuw %"class.pxrInternal_v0_24__pxrReserved__::PcpErrorInvalidReferenceOffset", ptr %12, i32 0, i32 6
  %14 = load i32, ptr %13, align 8
  call void @_ZN32pxrInternal_v0_24__pxrReserved__6TfEnumC2INS_10PcpArcTypeEEET_PNSt9enable_ifIXsr3std7is_enumIS3_EE5valueEvE4typeE(ptr noundef nonnull align 8 dereferenceable(12) %6, i32 noundef %14, ptr noundef null)
  %15 = getelementptr inbounds nuw { ptr, i32 }, ptr %6, i32 0, i32 0
  %16 = load ptr, ptr %15, align 8
  %17 = getelementptr inbounds nuw { ptr, i32 }, ptr %6, i32 0, i32 1
  %18 = load i32, ptr %17, align 8
  call void @_ZN32pxrInternal_v0_24__pxrReserved__6TfEnum14GetDisplayNameB5cxx11ES0_(ptr dead_on_unwind writable sret(%"class.std::__cxx11::basic_string") align 8 %5, ptr %16, i32 %18)
  %19 = call noundef ptr @_ZNKSt7__cxx1112basic_stringIcSt11char_traitsIcESaIcEE5c_strEv(ptr noundef nonnull align 8 dereferenceable(32) %5) #8
  %20 = getelementptr inbounds nuw %"class.pxrInternal_v0_24__pxrReserved__::PcpErrorInvalidReferenceOffset", ptr %12, i32 0, i32 5
  invoke void @_ZN32pxrInternal_v0_24__pxrReserved__11TfStringifyINS_14SdfLayerOffsetEEENSt7__cxx1112basic_stringIcSt11char_traitsIcESaIcEEERKT_(ptr dead_on_unwind writable sret(%"class.std::__cxx11::basic_string") align 8 %7, ptr noundef nonnull align 8 dereferenceable(16) %20)
          to label %21 unwind label %34

21:                                               ; preds = %2
  %22 = call noundef ptr @_ZNKSt7__cxx1112basic_stringIcSt11char_traitsIcESaIcEE5c_strEv(ptr noundef nonnull align 8 dereferenceable(32) %7) #8
  %23 = getelementptr inbounds nuw %"class.pxrInternal_v0_24__pxrReserved__::PcpErrorInvalidReferenceOffset", ptr %12, i32 0, i32 3
  %24 = call noundef ptr @_ZNKSt7__cxx1112basic_stringIcSt11char_traitsIcESaIcEE5c_strEv(ptr noundef nonnull align 8 dereferenceable(32) %23) #8
  %25 = getelementptr inbounds nuw %"class.pxrInternal_v0_24__pxrReserved__::PcpErrorInvalidReferenceOffset", ptr %12, i32 0, i32 4
  %26 = invoke noundef ptr @_ZNK32pxrInternal_v0_24__pxrReserved__7SdfPath7GetTextEv(ptr noundef nonnull align 4 dereferenceable(8) %25)
          to label %27 unwind label %38

27:                                               ; preds = %21
  %28 = getelementptr inbounds nuw %"class.pxrInternal_v0_24__pxrReserved__::PcpErrorInvalidReferenceOffset", ptr %12, i32 0, i32 1
  %29 = getelementptr inbounds nuw %"class.pxrInternal_v0_24__pxrReserved__::PcpErrorInvalidReferenceOffset", ptr %12, i32 0, i32 2
  invoke void @_ZN32pxrInternal_v0_24__pxrReserved__7PcpSiteC1ERKNS_9TfWeakPtrINS_8SdfLayerEEERKNS_7SdfPathE(ptr noundef nonnull align 8 dereferenceable(88) %11, ptr noundef nonnull align 8 dereferenceable(16) %28, ptr noundef nonnull align 4 dereferenceable(8) %29)
          to label %30 unwind label %38

30:                                               ; preds = %27
  invoke void @_ZN32pxrInternal_v0_24__pxrReserved__11TfStringifyINS_7PcpSiteEEENSt7__cxx1112basic_stringIcSt11char_traitsIcESaIcEEERKT_(ptr dead_on_unwind writable sret(%"class.std::__cxx11::basic_string") align 8 %10, ptr noundef nonnull align 8 dereferenceable(88) %11)
          to label %31 unwind label %42

31:                                               ; preds = %30
  %32 = call noundef ptr @_ZNKSt7__cxx1112basic_stringIcSt11char_traitsIcESaIcEE5c_strEv(ptr noundef nonnull align 8 dereferenceable(32) %10) #8
  invoke void (ptr, ptr, ...) @_ZN32pxrInternal_v0_24__pxrReserved__14TfStringPrintfB5cxx11EPKcz(ptr dead_on_unwind writable sret(%"class.std::__cxx11::basic_string") align 8 %0, ptr noundef @.str.40, ptr noundef %19, ptr noundef %22, ptr noundef %24, ptr noundef %26, ptr noundef %32)
          to label %33 unwind label %46

33:                                               ; preds = %31
  call void @_ZNSt7__cxx1112basic_stringIcSt11char_traitsIcESaIcEED1Ev(ptr noundef nonnull align 8 dereferenceable(32) %10) #8
  call void @_ZN32pxrInternal_v0_24__pxrReserved__7PcpSiteD2Ev(ptr noundef nonnull align 8 dereferenceable(88) %11) #8
  call void @_ZNSt7__cxx1112basic_stringIcSt11char_traitsIcESaIcEED1Ev(ptr noundef nonnull align 8 dereferenceable(32) %7) #8
  call void @_ZNSt7__cxx1112basic_stringIcSt11char_traitsIcESaIcEED1Ev(ptr noundef nonnull align 8 dereferenceable(32) %5) #8
  ret void

34:                                               ; preds = %2
  %35 = landingpad { ptr, i32 }
          cleanup
  %36 = extractvalue { ptr, i32 } %35, 0
  store ptr %36, ptr %8, align 8
  %37 = extractvalue { ptr, i32 } %35, 1
  store i32 %37, ptr %9, align 4
  br label %52

38:                                               ; preds = %27, %21
  %39 = landingpad { ptr, i32 }
          cleanup
  %40 = extractvalue { ptr, i32 } %39, 0
  store ptr %40, ptr %8, align 8
  %41 = extractvalue { ptr, i32 } %39, 1
  store i32 %41, ptr %9, align 4
  br label %51

42:                                               ; preds = %30
  %43 = landingpad { ptr, i32 }
          cleanup
  %44 = extractvalue { ptr, i32 } %43, 0
  store ptr %44, ptr %8, align 8
  %45 = extractvalue { ptr, i32 } %43, 1
  store i32 %45, ptr %9, align 4
  br label %50

46:                                               ; preds = %31
  %47 = landingpad { ptr, i32 }
          cleanup
  %48 = extractvalue { ptr, i32 } %47, 0
  store ptr %48, ptr %8, align 8
  %49 = extractvalue { ptr, i32 } %47, 1
  store i32 %49, ptr %9, align 4
  call void @_ZNSt7__cxx1112basic_stringIcSt11char_traitsIcESaIcEED1Ev(ptr noundef nonnull align 8 dereferenceable(32) %10) #8
  br label %50

50:                                               ; preds = %46, %42
  call void @_ZN32pxrInternal_v0_24__pxrReserved__7PcpSiteD2Ev(ptr noundef nonnull align 8 dereferenceable(88) %11) #8
  br label %51

51:                                               ; preds = %50, %38
  call void @_ZNSt7__cxx1112basic_stringIcSt11char_traitsIcESaIcEED1Ev(ptr noundef nonnull align 8 dereferenceable(32) %7) #8
  br label %52

52:                                               ; preds = %51, %34
  call void @_ZNSt7__cxx1112basic_stringIcSt11char_traitsIcESaIcEED1Ev(ptr noundef nonnull align 8 dereferenceable(32) %5) #8
  br label %53

53:                                               ; preds = %52
  %54 = load ptr, ptr %8, align 8
  %55 = load i32, ptr %9, align 4
  %56 = insertvalue { ptr, i32 } poison, ptr %54, 0
  %57 = insertvalue { ptr, i32 } %56, i32 %55, 1
  resume { ptr, i32 } %57
}