; Function Attrs: mustprogress uwtable
define void @_ZNK32pxrInternal_v0_24__pxrReserved__30PcpErrorInvalidReferenceOffset8ToStringB5cxx11Ev(ptr dead_on_unwind noalias writable sret(%"class.std::__cxx11::basic_string") align 8 %0, ptr noundef nonnull align 8 dereferenceable(188) %1) unnamed_addr #0 align 2 personality ptr @__gxx_personality_v0 {
  %3 = alloca %"class.std::__cxx11::basic_ostringstream", align 8
  %4 = alloca %"class.std::__cxx11::basic_ostringstream", align 8
  %5 = alloca %"class.std::__cxx11::basic_string", align 8
  %6 = alloca %"class.std::__cxx11::basic_string", align 8
  %7 = alloca %"class.std::__cxx11::basic_string", align 8
  %8 = alloca %"class.pxrInternal_v0_24__pxrReserved__::PcpSite", align 8
  %9 = getelementptr inbounds nuw i8, ptr %1, i64 184
  %10 = load i32, ptr %9, align 8
  call void @_ZN32pxrInternal_v0_24__pxrReserved__6TfEnum14GetDisplayNameB5cxx11ES0_(ptr dead_on_unwind nonnull writable sret(%"class.std::__cxx11::basic_string") align 8 %5, ptr nonnull @_ZTIN32pxrInternal_v0_24__pxrReserved__10PcpArcTypeE, i32 %10)
  %11 = call noundef ptr @_ZNKSt7__cxx1112basic_stringIcSt11char_traitsIcESaIcEE5c_strEv(ptr noundef nonnull align 8 dereferenceable(32) %5) #19
  call void @llvm.lifetime.start.p0(i64 376, ptr nonnull %4)
  invoke void @_ZNSt7__cxx1119basic_ostringstreamIcSt11char_traitsIcESaIcEEC1Ev(ptr noundef nonnull align 8 dereferenceable(112) %4)
          to label %.noexc unwind label %53

.noexc:                                           ; preds = %2
  %12 = getelementptr inbounds nuw i8, ptr %1, i64 168
  %13 = invoke noundef nonnull align 8 dereferenceable(8) ptr @_ZN32pxrInternal_v0_24__pxrReserved__lsERSoRKNS_14SdfLayerOffsetE(ptr noundef nonnull align 8 dereferenceable(8) %4, ptr noundef nonnull align 8 dereferenceable(16) %12)
          to label %14 unwind label %15, !noalias !40

14:                                               ; preds = %.noexc
  invoke void @_ZNKSt7__cxx1119basic_ostringstreamIcSt11char_traitsIcESaIcEE3strEv(ptr dead_on_unwind nonnull writable sret(%"class.std::__cxx11::basic_string") align 8 %6, ptr noundef nonnull align 8 dereferenceable(112) %4)
          to label %17 unwind label %15

15:                                               ; preds = %14, %.noexc
  %16 = landingpad { ptr, i32 }
          cleanup
  call void @_ZNSt7__cxx1119basic_ostringstreamIcSt11char_traitsIcESaIcEED1Ev(ptr noundef nonnull align 8 dereferenceable(112) %4) #19
  br label %.body

17:                                               ; preds = %14
  call void @_ZNSt7__cxx1119basic_ostringstreamIcSt11char_traitsIcESaIcEED1Ev(ptr noundef nonnull align 8 dereferenceable(112) %4) #19
  call void @llvm.lifetime.end.p0(i64 376, ptr nonnull %4)
  %18 = call noundef ptr @_ZNKSt7__cxx1112basic_stringIcSt11char_traitsIcESaIcEE5c_strEv(ptr noundef nonnull align 8 dereferenceable(32) %6) #19
  %19 = getelementptr inbounds nuw i8, ptr %1, i64 128
  %20 = call noundef ptr @_ZNKSt7__cxx1112basic_stringIcSt11char_traitsIcESaIcEE5c_strEv(ptr noundef nonnull align 8 dereferenceable(32) %19) #19
  %21 = getelementptr inbounds nuw i8, ptr %1, i64 160
  %22 = invoke noundef ptr @_ZNK32pxrInternal_v0_24__pxrReserved__7SdfPath7GetTextEv(ptr noundef nonnull align 4 dereferenceable(8) %21)
          to label %23 unwind label %55

23:                                               ; preds = %17
  %24 = getelementptr inbounds nuw i8, ptr %1, i64 104
  %25 = getelementptr inbounds nuw i8, ptr %1, i64 120
  invoke void @_ZN32pxrInternal_v0_24__pxrReserved__7PcpSiteC1ERKNS_9TfWeakPtrINS_8SdfLayerEEERKNS_7SdfPathE(ptr noundef nonnull align 8 dereferenceable(88) %8, ptr noundef nonnull align 8 dereferenceable(16) %24, ptr noundef nonnull align 4 dereferenceable(8) %25)
          to label %26 unwind label %55

26:                                               ; preds = %23
  call void @llvm.lifetime.start.p0(i64 376, ptr nonnull %3)
  invoke void @_ZNSt7__cxx1119basic_ostringstreamIcSt11char_traitsIcESaIcEEC1Ev(ptr noundef nonnull align 8 dereferenceable(112) %3)
          to label %.noexc8 unwind label %57

.noexc8:                                          ; preds = %26
  %27 = invoke noundef nonnull align 8 dereferenceable(8) ptr @_ZN32pxrInternal_v0_24__pxrReserved__lsERSoRKNS_7PcpSiteE(ptr noundef nonnull align 8 dereferenceable(8) %3, ptr noundef nonnull align 8 dereferenceable(88) %8)
          to label %28 unwind label %29, !noalias !43

28:                                               ; preds = %.noexc8
  invoke void @_ZNKSt7__cxx1119basic_ostringstreamIcSt11char_traitsIcESaIcEE3strEv(ptr dead_on_unwind nonnull writable sret(%"class.std::__cxx11::basic_string") align 8 %7, ptr noundef nonnull align 8 dereferenceable(112) %3)
          to label %31 unwind label %29

29:                                               ; preds = %28, %.noexc8
  %30 = landingpad { ptr, i32 }
          cleanup
  call void @_ZNSt7__cxx1119basic_ostringstreamIcSt11char_traitsIcESaIcEED1Ev(ptr noundef nonnull align 8 dereferenceable(112) %3) #19
  br label %.body9

31:                                               ; preds = %28
  call void @_ZNSt7__cxx1119basic_ostringstreamIcSt11char_traitsIcESaIcEED1Ev(ptr noundef nonnull align 8 dereferenceable(112) %3) #19
  call void @llvm.lifetime.end.p0(i64 376, ptr nonnull %3)
  %32 = call noundef ptr @_ZNKSt7__cxx1112basic_stringIcSt11char_traitsIcESaIcEE5c_strEv(ptr noundef nonnull align 8 dereferenceable(32) %7) #19
  invoke void (ptr, ptr, ...) @_ZN32pxrInternal_v0_24__pxrReserved__14TfStringPrintfB5cxx11EPKcz(ptr dead_on_unwind writable sret(%"class.std::__cxx11::basic_string") align 8 %0, ptr noundef nonnull @.str.40, ptr noundef %11, ptr noundef %18, ptr noundef %20, ptr noundef %22, ptr noundef %32)
          to label %33 unwind label %59

33:                                               ; preds = %31
  call void @_ZNSt7__cxx1112basic_stringIcSt11char_traitsIcESaIcEED1Ev(ptr noundef nonnull align 8 dereferenceable(32) %7) #19
  %34 = getelementptr inbounds nuw i8, ptr %8, i64 80
  %35 = load i32, ptr %34, align 8
  %.not.i.i.i = icmp eq i32 %35, 0
  br i1 %.not.i.i.i, label %_ZN32pxrInternal_v0_24__pxrReserved__7PcpSiteD2Ev.exit, label %36

36:                                               ; preds = %33
  %37 = and i32 %35, 255
  %38 = lshr i32 %35, 8
  %39 = zext nneg i32 %37 to i64
  %40 = getelementptr inbounds [257 x ptr], ptr @_ZN32pxrInternal_v0_24__pxrReserved__8Sdf_PoolINS_15Sdf_PathPrimTagELj24ELj8ELj16384EE13_regionStartsE, i64 0, i64 %39
  %41 = load ptr, ptr %40, align 8
  %42 = mul nuw nsw i32 %38, 24
  %43 = zext nneg i32 %42 to i64
  %44 = getelementptr inbounds i8, ptr %41, i64 %43
  %45 = getelementptr inbounds nuw i8, ptr %44, i64 8
  %46 = atomicrmw sub ptr %45, i32 1 seq_cst, align 4
  %47 = and i32 %46, 2147483647
  %48 = icmp eq i32 %47, 1
  br i1 %48, label %49, label %_ZN32pxrInternal_v0_24__pxrReserved__7PcpSiteD2Ev.exit

49:                                               ; preds = %36
  invoke void @_ZNK32pxrInternal_v0_24__pxrReserved__12Sdf_PathNode8_DestroyEv(ptr noundef nonnull align 8 dereferenceable(16) %44)
          to label %_ZN32pxrInternal_v0_24__pxrReserved__7PcpSiteD2Ev.exit unwind label %50

50:                                               ; preds = %49
  %51 = landingpad { ptr, i32 }
          catch ptr null
  %52 = extractvalue { ptr, i32 } %51, 0
  call void @__clang_call_terminate(ptr %52) #18
  unreachable

_ZN32pxrInternal_v0_24__pxrReserved__7PcpSiteD2Ev.exit: ; preds = %33, %36, %49
  call void @_ZN32pxrInternal_v0_24__pxrReserved__23PcpLayerStackIdentifierD2Ev(ptr noundef nonnull align 8 dereferenceable(80) %8) #19
  call void @_ZNSt7__cxx1112basic_stringIcSt11char_traitsIcESaIcEED1Ev(ptr noundef nonnull align 8 dereferenceable(32) %6) #19
  call void @_ZNSt7__cxx1112basic_stringIcSt11char_traitsIcESaIcEED1Ev(ptr noundef nonnull align 8 dereferenceable(32) %5) #19
  ret void

53:                                               ; preds = %2
  %54 = landingpad { ptr, i32 }
          cleanup
  br label %.body

55:                                               ; preds = %23, %17
  %56 = landingpad { ptr, i32 }
          cleanup
  br label %61

57:                                               ; preds = %26
  %58 = landingpad { ptr, i32 }
          cleanup
  br label %.body9

59:                                               ; preds = %31
  %60 = landingpad { ptr, i32 }
          cleanup
  call void @_ZNSt7__cxx1112basic_stringIcSt11char_traitsIcESaIcEED1Ev(ptr noundef nonnull align 8 dereferenceable(32) %7) #19
  br label %.body9

.body9:                                           ; preds = %57, %29, %59
  %.pn = phi { ptr, i32 } [ %60, %59 ], [ %58, %57 ], [ %30, %29 ]
  call void @_ZN32pxrInternal_v0_24__pxrReserved__7PcpSiteD2Ev(ptr noundef nonnull align 8 dereferenceable(88) %8) #19
  br label %61

61:                                               ; preds = %.body9, %55
  %.pn.pn = phi { ptr, i32 } [ %.pn, %.body9 ], [ %56, %55 ]
  call void @_ZNSt7__cxx1112basic_stringIcSt11char_traitsIcESaIcEED1Ev(ptr noundef nonnull align 8 dereferenceable(32) %6) #19
  br label %.body

.body:                                            ; preds = %53, %15, %61
  %.pn.pn.pn = phi { ptr, i32 } [ %.pn.pn, %61 ], [ %54, %53 ], [ %16, %15 ]
  call void @_ZNSt7__cxx1112basic_stringIcSt11char_traitsIcESaIcEED1Ev(ptr noundef nonnull align 8 dereferenceable(32) %5) #19
  resume { ptr, i32 } %.pn.pn.pn
}